target datalayout = "e-m:e-p270:32:32-p271:32:32-p272:64:64-i64:64-i128:128-f80:128-n8:16:32:64-S128"
target triple = "x86_64-pc-linux-gnu"

%struct.jpeg_compress_struct = type { ptr, ptr, ptr, ptr, i32, i32, ptr, i32, i32, i32, i32, double, i32, i32, i32, ptr, [4 x ptr], [4 x ptr], [4 x ptr], [16 x i8], [16 x i8], [16 x i8], i32, ptr, i32, i32, i32, i32, i32, i32, i32, i32, i32, i8, i8, i8, i16, i16, i32, i32, i32, i32, i32, i32, i32, [4 x ptr], i32, i32, i32, [10 x i32], i32, i32, i32, i32, ptr, ptr, ptr, ptr, ptr, ptr, ptr, ptr, ptr, ptr, i32 }
%struct.jpeg_error_mgr = type { ptr, ptr, ptr, ptr, ptr, i32, %union.anon, i32, i64, ptr, i32, ptr, i32, i32 }
%union.anon = type { [8 x i32], [48 x i8] }
%struct.jpeg_memory_mgr = type { ptr, ptr, ptr, ptr, ptr, ptr, ptr, ptr, ptr, ptr, ptr, i64, i64 }
%struct.huff_entropy_encoder = type { %struct.jpeg_entropy_encoder, %struct.savable_state, i32, i32, [4 x ptr], [4 x ptr], [4 x ptr], [4 x ptr] }
%struct.jpeg_entropy_encoder = type { ptr, ptr, ptr }
%struct.savable_state = type { i32, i32, [4 x i32] }
%struct.jpeg_component_info = type { i32, i32, i32, i32, i32, i32, i32, i32, i32, i32, i32, i32, i32, i32, i32, i32, i32, i32, i32, ptr, ptr }

; Function Attrs: nounwind uwtable
define internal void @start_pass_huff(ptr noundef %0, i32 noundef %1) #0 {
  %3 = alloca ptr, align 8
  %4 = alloca i32, align 4
  %5 = alloca ptr, align 8
  %6 = alloca i32, align 4
  %7 = alloca i32, align 4
  %8 = alloca i32, align 4
  %9 = alloca ptr, align 8
  store ptr %0, ptr %3, align 8
  store i32 %1, ptr %4, align 4
  %10 = load ptr, ptr %3, align 8
  %11 = getelementptr inbounds %struct.jpeg_compress_struct, ptr %10, i32 0, i32 62
  %12 = load ptr, ptr %11, align 8
  store ptr %12, ptr %5, align 8
  %13 = load i32, ptr %4, align 4
  %14 = icmp ne i32 %13, 0
  br i1 %14, label %15, label %22

15:                                               ; preds = %2
  %16 = load ptr, ptr %5, align 8
  %17 = getelementptr inbounds %struct.huff_entropy_encoder, ptr %16, i32 0, i32 0
  %18 = getelementptr inbounds %struct.jpeg_entropy_encoder, ptr %17, i32 0, i32 1
  store ptr @encode_mcu_gather, ptr %18, align 8
  %19 = load ptr, ptr %5, align 8
  %20 = getelementptr inbounds %struct.huff_entropy_encoder, ptr %19, i32 0, i32 0
  %21 = getelementptr inbounds %struct.jpeg_entropy_encoder, ptr %20, i32 0, i32 2
  store ptr @finish_pass_gather, ptr %21, align 8
  br label %29

22:                                               ; preds = %2
  %23 = load ptr, ptr %5, align 8
  %24 = getelementptr inbounds %struct.huff_entropy_encoder, ptr %23, i32 0, i32 0
  %25 = getelementptr inbounds %struct.jpeg_entropy_encoder, ptr %24, i32 0, i32 1
  store ptr @encode_mcu_huff, ptr %25, align 8
  %26 = load ptr, ptr %5, align 8
  %27 = getelementptr inbounds %struct.huff_entropy_encoder, ptr %26, i32 0, i32 0
  %28 = getelementptr inbounds %struct.jpeg_entropy_encoder, ptr %27, i32 0, i32 2
  store ptr @finish_pass_huff, ptr %28, align 8
  br label %29

29:                                               ; preds = %22, %15
  store i32 0, ptr %6, align 4
  br label %30

30:                                               ; preds = %174, %29
  %31 = load i32, ptr %6, align 4
  %32 = load ptr, ptr %3, align 8
  %33 = getelementptr inbounds %struct.jpeg_compress_struct, ptr %32, i32 0, i32 44
  %34 = load i32, ptr %33, align 4
  %35 = icmp slt i32 %31, %34
  br i1 %35, label %36, label %177

36:                                               ; preds = %30
  %37 = load ptr, ptr %3, align 8
  %38 = getelementptr inbounds %struct.jpeg_compress_struct, ptr %37, i32 0, i32 45
  %39 = load i32, ptr %6, align 4
  %40 = sext i32 %39 to i64
  %41 = getelementptr inbounds [4 x ptr], ptr %38, i64 0, i64 %40
  %42 = load ptr, ptr %41, align 8
  store ptr %42, ptr %9, align 8
  %43 = load ptr, ptr %9, align 8
  %44 = getelementptr inbounds %struct.jpeg_component_info, ptr %43, i32 0, i32 5
  %45 = load i32, ptr %44, align 4
  store i32 %45, ptr %7, align 4
  %46 = load ptr, ptr %9, align 8
  %47 = getelementptr inbounds %struct.jpeg_component_info, ptr %46, i32 0, i32 6
  %48 = load i32, ptr %47, align 8
  store i32 %48, ptr %8, align 4
  %49 = load i32, ptr %4, align 4
  %50 = icmp ne i32 %49, 0
  br i1 %50, label %51, label %152

51:                                               ; preds = %36
  %52 = load i32, ptr %7, align 4
  %53 = icmp slt i32 %52, 0
  br i1 %53, label %57, label %54

54:                                               ; preds = %51
  %55 = load i32, ptr %7, align 4
  %56 = icmp sge i32 %55, 4
  br i1 %56, label %57, label %74

57:                                               ; preds = %54, %51
  %58 = load ptr, ptr %3, align 8
  %59 = getelementptr inbounds %struct.jpeg_compress_struct, ptr %58, i32 0, i32 0
  %60 = load ptr, ptr %59, align 8
  %61 = getelementptr inbounds %struct.jpeg_error_mgr, ptr %60, i32 0, i32 5
  store i32 50, ptr %61, align 8
  %62 = load i32, ptr %7, align 4
  %63 = load ptr, ptr %3, align 8
  %64 = getelementptr inbounds %struct.jpeg_compress_struct, ptr %63, i32 0, i32 0
  %65 = load ptr, ptr %64, align 8
  %66 = getelementptr inbounds %struct.jpeg_error_mgr, ptr %65, i32 0, i32 6
  %67 = getelementptr inbounds [8 x i32], ptr %66, i64 0, i64 0
  store i32 %62, ptr %67, align 4
  %68 = load ptr, ptr %3, align 8
  %69 = getelementptr inbounds %struct.jpeg_compress_struct, ptr %68, i32 0, i32 0
  %70 = load ptr, ptr %69, align 8
  %71 = getelementptr inbounds %struct.jpeg_error_mgr, ptr %70, i32 0, i32 0
  %72 = load ptr, ptr %71, align 8
  %73 = load ptr, ptr %3, align 8
  call void %72(ptr noundef %73)
  br label %74

74:                                               ; preds = %57, %54
  %75 = load i32, ptr %8, align 4
  %76 = icmp slt i32 %75, 0
  br i1 %76, label %80, label %77

77:                                               ; preds = %74
  %78 = load i32, ptr %8, align 4
  %79 = icmp sge i32 %78, 4
  br i1 %79, label %80, label %97

80:                                               ; preds = %77, %74
  %81 = load ptr, ptr %3, align 8
  %82 = getelementptr inbounds %struct.jpeg_compress_struct, ptr %81, i32 0, i32 0
  %83 = load ptr, ptr %82, align 8
  %84 = getelementptr inbounds %struct.jpeg_error_mgr, ptr %83, i32 0, i32 5
  store i32 50, ptr %84, align 8
  %85 = load i32, ptr %8, align 4
  %86 = load ptr, ptr %3, align 8
  %87 = getelementptr inbounds %struct.jpeg_compress_struct, ptr %86, i32 0, i32 0
  %88 = load ptr, ptr %87, align 8
  %89 = getelementptr inbounds %struct.jpeg_error_mgr, ptr %88, i32 0, i32 6
  %90 = getelementptr inbounds [8 x i32], ptr %89, i64 0, i64 0
  store i32 %85, ptr %90, align 4
  %91 = load ptr, ptr %3, align 8
  %92 = getelementptr inbounds %struct.jpeg_compress_struct, ptr %91, i32 0, i32 0
  %93 = load ptr, ptr %92, align 8
  %94 = getelementptr inbounds %struct.jpeg_error_mgr, ptr %93, i32 0, i32 0
  %95 = load ptr, ptr %94, align 8
  %96 = load ptr, ptr %3, align 8
  call void %95(ptr noundef %96)
  br label %97

97:                                               ; preds = %80, %77
  %98 = load ptr, ptr %5, align 8
  %99 = getelementptr inbounds %struct.huff_entropy_encoder, ptr %98, i32 0, i32 6
  %100 = load i32, ptr %7, align 4
  %101 = sext i32 %100 to i64
  %102 = getelementptr inbounds [4 x ptr], ptr %99, i64 0, i64 %101
  %103 = load ptr, ptr %102, align 8
  %104 = icmp eq ptr %103, null
  br i1 %104, label %105, label %118

105:                                              ; preds = %97
  %106 = load ptr, ptr %3, align 8
  %107 = getelementptr inbounds %struct.jpeg_compress_struct, ptr %106, i32 0, i32 1
  %108 = load ptr, ptr %107, align 8
  %109 = getelementptr inbounds %struct.jpeg_memory_mgr, ptr %108, i32 0, i32 0
  %110 = load ptr, ptr %109, align 8
  %111 = load ptr, ptr %3, align 8
  %112 = call ptr %110(ptr noundef %111, i32 noundef 1, i64 noundef 2056)
  %113 = load ptr, ptr %5, align 8
  %114 = getelementptr inbounds %struct.huff_entropy_encoder, ptr %113, i32 0, i32 6
  %115 = load i32, ptr %7, align 4
  %116 = sext i32 %115 to i64
  %117 = getelementptr inbounds [4 x ptr], ptr %114, i64 0, i64 %116
  store ptr %112, ptr %117, align 8
  br label %118

118:                                              ; preds = %105, %97
  %119 = load ptr, ptr %5, align 8
  %120 = getelementptr inbounds %struct.huff_entropy_encoder, ptr %119, i32 0, i32 6
  %121 = load i32, ptr %7, align 4
  %122 = sext i32 %121 to i64
  %123 = getelementptr inbounds [4 x ptr], ptr %120, i64 0, i64 %122
  %124 = load ptr, ptr %123, align 8
  call void @llvm.memset.p0.i64(ptr align 1 %124, i8 0, i64 2056, i1 false)
  %125 = load ptr, ptr %5, align 8
  %126 = getelementptr inbounds %struct.huff_entropy_encoder, ptr %125, i32 0, i32 7
  %127 = load i32, ptr %8, align 4
  %128 = sext i32 %127 to i64
  %129 = getelementptr inbounds [4 x ptr], ptr %126, i64 0, i64 %128
  %130 = load ptr, ptr %129, align 8
  %131 = icmp eq ptr %130, null
  br i1 %131, label %132, label %145

132:                                              ; preds = %118
  %133 = load ptr, ptr %3, align 8
  %134 = getelementptr inbounds %struct.jpeg_compress_struct, ptr %133, i32 0, i32 1
  %135 = load ptr, ptr %134, align 8
  %136 = getelementptr inbounds %struct.jpeg_memory_mgr, ptr %135, i32 0, i32 0
  %137 = load ptr, ptr %136, align 8
  %138 = load ptr, ptr %3, align 8
  %139 = call ptr %137(ptr noundef %138, i32 noundef 1, i64 noundef 2056)
  %140 = load ptr, ptr %5, align 8
  %141 = getelementptr inbounds %struct.huff_entropy_encoder, ptr %140, i32 0, i32 7
  %142 = load i32, ptr %8, align 4
  %143 = sext i32 %142 to i64
  %144 = getelementptr inbounds [4 x ptr], ptr %141, i64 0, i64 %143
  store ptr %139, ptr %144, align 8
  br label %145

145:                                              ; preds = %132, %118
  %146 = load ptr, ptr %5, align 8
  %147 = getelementptr inbounds %struct.huff_entropy_encoder, ptr %146, i32 0, i32 7
  %148 = load i32, ptr %8, align 4
  %149 = sext i32 %148 to i64
  %150 = getelementptr inbounds [4 x ptr], ptr %147, i64 0, i64 %149
  %151 = load ptr, ptr %150, align 8
  call void @llvm.memset.p0.i64(ptr align 1 %151, i8 0, i64 2056, i1 false)
  br label %167

152:                                              ; preds = %36
  %153 = load ptr, ptr %3, align 8
  %154 = load i32, ptr %7, align 4
  %155 = load ptr, ptr %5, align 8
  %156 = getelementptr inbounds %struct.huff_entropy_encoder, ptr %155, i32 0, i32 4
  %157 = load i32, ptr %7, align 4
  %158 = sext i32 %157 to i64
  %159 = getelementptr inbounds [4 x ptr], ptr %156, i64 0, i64 %158
  call void @jMkCDerived(ptr noundef %153, i32 noundef 1, i32 noundef %154, ptr noundef %159)
  %160 = load ptr, ptr %3, align 8
  %161 = load i32, ptr %8, align 4
  %162 = load ptr, ptr %5, align 8
  %163 = getelementptr inbounds %struct.huff_entropy_encoder, ptr %162, i32 0, i32 5
  %164 = load i32, ptr %8, align 4
  %165 = sext i32 %164 to i64
  %166 = getelementptr inbounds [4 x ptr], ptr %163, i64 0, i64 %165
  call void @jMkCDerived(ptr noundef %160, i32 noundef 0, i32 noundef %161, ptr noundef %166)
  br label %167

167:                                              ; preds = %152, %145
  %168 = load ptr, ptr %5, align 8
  %169 = getelementptr inbounds %struct.huff_entropy_encoder, ptr %168, i32 0, i32 1
  %170 = getelementptr inbounds %struct.savable_state, ptr %169, i32 0, i32 2
  %171 = load i32, ptr %6, align 4
  %172 = sext i32 %171 to i64
  %173 = getelementptr inbounds [4 x i32], ptr %170, i64 0, i64 %172
  store i32 0, ptr %173, align 4
  br label %174

174:                                              ; preds = %167
  %175 = load i32, ptr %6, align 4
  %176 = add nsw i32 %175, 1
  store i32 %176, ptr %6, align 4
  br label %30, !llvm.loop !25

177:                                              ; preds = %30
  %178 = load ptr, ptr %5, align 8
  %179 = getelementptr inbounds %struct.huff_entropy_encoder, ptr %178, i32 0, i32 1
  %180 = getelementptr inbounds %struct.savable_state, ptr %179, i32 0, i32 0
  store i32 0, ptr %180, align 8
  %181 = load ptr, ptr %5, align 8
  %182 = getelementptr inbounds %struct.huff_entropy_encoder, ptr %181, i32 0, i32 1
  %183 = getelementptr inbounds %struct.savable_state, ptr %182, i32 0, i32 1
  store i32 0, ptr %183, align 4
  %184 = load ptr, ptr %3, align 8
  %185 = getelementptr inbounds %struct.jpeg_compress_struct, ptr %184, i32 0, i32 30
  %186 = load i32, ptr %185, align 8
  %187 = load ptr, ptr %5, align 8
  %188 = getelementptr inbounds %struct.huff_entropy_encoder, ptr %187, i32 0, i32 2
  store i32 %186, ptr %188, align 8
  %189 = load ptr, ptr %5, align 8
  %190 = getelementptr inbounds %struct.huff_entropy_encoder, ptr %189, i32 0, i32 3
  store i32 0, ptr %190, align 4
  ret void
}