; Function Attrs: nounwind uwtable
define internal void @start_pass_huff(ptr noundef %0, i32 noundef %1) #0 {
  %3 = getelementptr inbounds i8, ptr %0, i64 496
  %4 = load ptr, ptr %3, align 8
  %.not = icmp eq i32 %1, 0
  %5 = getelementptr inbounds i8, ptr %4, i64 8
  %6 = getelementptr inbounds i8, ptr %4, i64 16
  %7 = getelementptr inbounds i8, ptr %0, i64 324
  br i1 %.not, label %8, label %.thread

8:                                                ; preds = %2
  store ptr @encode_mcu_huff, ptr %5, align 8
  store ptr @finish_pass_huff, ptr %6, align 8
  %9 = load i32, ptr %7, align 4
  %10 = icmp sgt i32 %9, 0
  br i1 %10, label %.lr.ph.split.us.preheader, label %._crit_edge

.thread:                                          ; preds = %2
  store ptr @encode_mcu_gather, ptr %5, align 8
  store ptr @finish_pass_gather, ptr %6, align 8
  %11 = load i32, ptr %7, align 4
  %12 = icmp sgt i32 %11, 0
  br i1 %12, label %.lr.ph.split.preheader, label %._crit_edge

.lr.ph.split.preheader:                           ; preds = %.thread
  %13 = getelementptr inbounds i8, ptr %0, i64 328
  %14 = getelementptr inbounds i8, ptr %4, i64 120
  %15 = getelementptr inbounds i8, ptr %0, i64 8
  %16 = getelementptr inbounds i8, ptr %4, i64 152
  %17 = getelementptr inbounds i8, ptr %4, i64 32
  br label %.lr.ph.split

.lr.ph.split.us.preheader:                        ; preds = %8
  %18 = getelementptr inbounds i8, ptr %0, i64 328
  %19 = getelementptr inbounds i8, ptr %4, i64 56
  %20 = getelementptr inbounds i8, ptr %4, i64 88
  %21 = getelementptr inbounds i8, ptr %4, i64 32
  br label %.lr.ph.split.us

.lr.ph.split.us:                                  ; preds = %.lr.ph.split.us.preheader, %.lr.ph.split.us
  %indvars.iv64 = phi i64 [ 0, %.lr.ph.split.us.preheader ], [ %indvars.iv.next65, %.lr.ph.split.us ]
  %22 = getelementptr inbounds [4 x ptr], ptr %18, i64 0, i64 %indvars.iv64
  %23 = load ptr, ptr %22, align 8
  %24 = getelementptr inbounds i8, ptr %23, i64 20
  %25 = load i32, ptr %24, align 4
  %26 = getelementptr inbounds i8, ptr %23, i64 24
  %27 = load i32, ptr %26, align 8
  %28 = sext i32 %25 to i64
  %29 = getelementptr inbounds [4 x ptr], ptr %19, i64 0, i64 %28
  tail call void @jMkCDerived(ptr noundef nonnull %0, i32 noundef 1, i32 noundef %25, ptr noundef nonnull %29)
  %30 = sext i32 %27 to i64
  %31 = getelementptr inbounds [4 x ptr], ptr %20, i64 0, i64 %30
  tail call void @jMkCDerived(ptr noundef nonnull %0, i32 noundef 0, i32 noundef %27, ptr noundef nonnull %31)
  %32 = getelementptr inbounds [4 x i32], ptr %21, i64 0, i64 %indvars.iv64
  store i32 0, ptr %32, align 4
  %indvars.iv.next65 = add nuw nsw i64 %indvars.iv64, 1
  %33 = load i32, ptr %7, align 4
  %34 = sext i32 %33 to i64
  %35 = icmp slt i64 %indvars.iv.next65, %34
  br i1 %35, label %.lr.ph.split.us, label %._crit_edge, !llvm.loop !23

.lr.ph.split:                                     ; preds = %.lr.ph.split.preheader, %76
  %indvars.iv = phi i64 [ 0, %.lr.ph.split.preheader ], [ %indvars.iv.next, %76 ]
  %36 = getelementptr inbounds [4 x ptr], ptr %13, i64 0, i64 %indvars.iv
  %37 = load ptr, ptr %36, align 8
  %38 = getelementptr inbounds i8, ptr %37, i64 20
  %39 = load i32, ptr %38, align 4
  %40 = getelementptr inbounds i8, ptr %37, i64 24
  %41 = load i32, ptr %40, align 8
  %or.cond = icmp ugt i32 %39, 3
  br i1 %or.cond, label %42, label %49

42:                                               ; preds = %.lr.ph.split
  %43 = load ptr, ptr %0, align 8
  %44 = getelementptr inbounds i8, ptr %43, i64 40
  store i32 50, ptr %44, align 8
  %45 = load ptr, ptr %0, align 8
  %46 = getelementptr inbounds i8, ptr %45, i64 44
  store i32 %39, ptr %46, align 4
  %47 = load ptr, ptr %0, align 8
  %48 = load ptr, ptr %47, align 8
  tail call void %48(ptr noundef nonnull %0) #5
  br label %49

49:                                               ; preds = %.lr.ph.split, %42
  %or.cond3 = icmp ugt i32 %41, 3
  br i1 %or.cond3, label %50, label %57

50:                                               ; preds = %49
  %51 = load ptr, ptr %0, align 8
  %52 = getelementptr inbounds i8, ptr %51, i64 40
  store i32 50, ptr %52, align 8
  %53 = load ptr, ptr %0, align 8
  %54 = getelementptr inbounds i8, ptr %53, i64 44
  store i32 %41, ptr %54, align 4
  %55 = load ptr, ptr %0, align 8
  %56 = load ptr, ptr %55, align 8
  tail call void %56(ptr noundef nonnull %0) #5
  br label %57

57:                                               ; preds = %49, %50
  %58 = sext i32 %39 to i64
  %59 = getelementptr inbounds [4 x ptr], ptr %14, i64 0, i64 %58
  %60 = load ptr, ptr %59, align 8
  %61 = icmp eq ptr %60, null
  br i1 %61, label %62, label %66

62:                                               ; preds = %57
  %63 = load ptr, ptr %15, align 8
  %64 = load ptr, ptr %63, align 8
  %65 = tail call ptr %64(ptr noundef nonnull %0, i32 noundef 1, i64 noundef 2056) #5
  store ptr %65, ptr %59, align 8
  br label %66

66:                                               ; preds = %62, %57
  %67 = phi ptr [ %65, %62 ], [ %60, %57 ]
  tail call void @llvm.memset.p0.i64(ptr noundef nonnull align 1 dereferenceable(2056) %67, i8 0, i64 2056, i1 false)
  %68 = sext i32 %41 to i64
  %69 = getelementptr inbounds [4 x ptr], ptr %16, i64 0, i64 %68
  %70 = load ptr, ptr %69, align 8
  %71 = icmp eq ptr %70, null
  br i1 %71, label %72, label %76

72:                                               ; preds = %66
  %73 = load ptr, ptr %15, align 8
  %74 = load ptr, ptr %73, align 8
  %75 = tail call ptr %74(ptr noundef nonnull %0, i32 noundef 1, i64 noundef 2056) #5
  store ptr %75, ptr %69, align 8
  br label %76

76:                                               ; preds = %72, %66
  %77 = phi ptr [ %75, %72 ], [ %70, %66 ]
  tail call void @llvm.memset.p0.i64(ptr noundef nonnull align 1 dereferenceable(2056) %77, i8 0, i64 2056, i1 false)
  %78 = getelementptr inbounds [4 x i32], ptr %17, i64 0, i64 %indvars.iv
  store i32 0, ptr %78, align 4
  %indvars.iv.next = add nuw nsw i64 %indvars.iv, 1
  %79 = load i32, ptr %7, align 4
  %80 = sext i32 %79 to i64
  %81 = icmp slt i64 %indvars.iv.next, %80
  br i1 %81, label %.lr.ph.split, label %._crit_edge, !llvm.loop !23

._crit_edge:                                      ; preds = %76, %.lr.ph.split.us, %.thread, %8
  %82 = getelementptr inbounds i8, ptr %4, i64 24
  store i32 0, ptr %82, align 8
  %83 = getelementptr inbounds i8, ptr %4, i64 28
  store i32 0, ptr %83, align 4
  %84 = getelementptr inbounds i8, ptr %0, i64 280
  %85 = load i32, ptr %84, align 8
  %86 = getelementptr inbounds i8, ptr %4, i64 48
  store i32 %85, ptr %86, align 8
  %87 = getelementptr inbounds i8, ptr %4, i64 52
  store i32 0, ptr %87, align 4
  ret void
}